target datalayout = "e-m:e-p270:32:32-p271:32:32-p272:64:64-i64:64-i128:128-f80:128-n8:16:32:64-S128"
target triple = "x86_64-pc-linux-gnu"

%struct.Str_Mux_t_ = type { i32, i32, i32, i32, [3 x %struct.Str_Edg_t_] }
%struct.Str_Edg_t_ = type { i32, i32, i32, i32 }

; Function Attrs: inlinehint nounwind uwtable
define internal i32 @Abc_Lit2Var(i32 noundef %0) #3 {
  %2 = alloca i32, align 4
  store i32 %0, ptr %2, align 4, !tbaa !39
  %3 = load i32, ptr %2, align 4, !tbaa !39
  %4 = ashr i32 %3, 1
  ret i32 %4
}

; Function Attrs: nounwind uwtable
define void @Str_MuxChangeUndo(ptr noundef %0, ptr noundef %1, i32 noundef %2, i32 noundef %3, ptr noundef %4) #0 {
  %6 = alloca ptr, align 8
  %7 = alloca ptr, align 8
  %8 = alloca i32, align 4
  %9 = alloca i32, align 4
  %10 = alloca ptr, align 8
  store ptr %0, ptr %6, align 8, !tbaa !153
  store ptr %1, ptr %7, align 8, !tbaa !109
  store i32 %2, ptr %8, align 4, !tbaa !39
  store i32 %3, ptr %9, align 4, !tbaa !39
  store ptr %4, ptr %10, align 8, !tbaa !153
  %11 = load ptr, ptr %6, align 8, !tbaa !153
  %12 = load ptr, ptr %7, align 8, !tbaa !109
  %13 = load i32, ptr %9, align 4, !tbaa !39
  %14 = sext i32 %13 to i64
  %15 = getelementptr inbounds i32, ptr %12, i64 %14
  %16 = load i32, ptr %15, align 4, !tbaa !39
  %17 = call i32 @Abc_Lit2Var(i32 noundef %16)
  %18 = sext i32 %17 to i64
  %19 = getelementptr inbounds %struct.Str_Mux_t_, ptr %11, i64 %18
  %20 = load ptr, ptr %10, align 8, !tbaa !153
  %21 = getelementptr inbounds %struct.Str_Mux_t_, ptr %20, i64 0
  call void @llvm.memcpy.p0.p0.i64(ptr align 4 %19, ptr align 4 %21, i64 64, i1 false), !tbaa.struct !167
  %22 = load ptr, ptr %6, align 8, !tbaa !153
  %23 = load ptr, ptr %7, align 8, !tbaa !109
  %24 = load i32, ptr %8, align 4, !tbaa !39
  %25 = add nsw i32 %24, 1
  %26 = sext i32 %25 to i64
  %27 = getelementptr inbounds i32, ptr %23, i64 %26
  %28 = load i32, ptr %27, align 4, !tbaa !39
  %29 = call i32 @Abc_Lit2Var(i32 noundef %28)
  %30 = sext i32 %29 to i64
  %31 = getelementptr inbounds %struct.Str_Mux_t_, ptr %22, i64 %30
  %32 = load ptr, ptr %10, align 8, !tbaa !153
  %33 = getelementptr inbounds %struct.Str_Mux_t_, ptr %32, i64 1
  call void @llvm.memcpy.p0.p0.i64(ptr align 4 %31, ptr align 4 %33, i64 64, i1 false), !tbaa.struct !167
  %34 = load ptr, ptr %6, align 8, !tbaa !153
  %35 = load ptr, ptr %7, align 8, !tbaa !109
  %36 = load i32, ptr %8, align 4, !tbaa !39
  %37 = sext i32 %36 to i64
  %38 = getelementptr inbounds i32, ptr %35, i64 %37
  %39 = load i32, ptr %38, align 4, !tbaa !39
  %40 = call i32 @Abc_Lit2Var(i32 noundef %39)
  %41 = sext i32 %40 to i64
  %42 = getelementptr inbounds %struct.Str_Mux_t_, ptr %34, i64 %41
  %43 = load ptr, ptr %10, align 8, !tbaa !153
  %44 = getelementptr inbounds %struct.Str_Mux_t_, ptr %43, i64 2
  call void @llvm.memcpy.p0.p0.i64(ptr align 4 %42, ptr align 4 %44, i64 64, i1 false), !tbaa.struct !167
  ret void
}