; Function Attrs: mustprogress nofree norecurse nosync nounwind willreturn memory(argmem: readwrite) uwtable
define void @Str_MuxChangeUndo(ptr noundef writeonly captures(none) %0, ptr noundef readonly captures(none) %1, i32 noundef %2, i32 noundef %3, ptr noundef readonly captures(none) %4) local_unnamed_addr #15 {
  %6 = sext i32 %3 to i64
  %7 = getelementptr inbounds i32, ptr %1, i64 %6
  %8 = load i32, ptr %7, align 4, !tbaa !38
  %9 = ashr i32 %8, 1
  %10 = sext i32 %9 to i64
  %11 = getelementptr inbounds %struct.Str_Mux_t_, ptr %0, i64 %10
  tail call void @llvm.memcpy.p0.p0.i64(ptr noundef nonnull align 4 dereferenceable(64) %11, ptr noundef nonnull align 4 dereferenceable(64) %4, i64 64, i1 false), !tbaa.struct !148
  %12 = sext i32 %2 to i64
  %13 = getelementptr i32, ptr %1, i64 %12
  %14 = getelementptr i8, ptr %13, i64 4
  %15 = load i32, ptr %14, align 4, !tbaa !38
  %16 = ashr i32 %15, 1
  %17 = sext i32 %16 to i64
  %18 = getelementptr inbounds %struct.Str_Mux_t_, ptr %0, i64 %17
  %19 = getelementptr inbounds nuw i8, ptr %4, i64 64
  tail call void @llvm.memcpy.p0.p0.i64(ptr noundef nonnull align 4 dereferenceable(64) %18, ptr noundef nonnull align 4 dereferenceable(64) %19, i64 64, i1 false), !tbaa.struct !148
  %20 = load i32, ptr %13, align 4, !tbaa !38
  %21 = ashr i32 %20, 1
  %22 = sext i32 %21 to i64
  %23 = getelementptr inbounds %struct.Str_Mux_t_, ptr %0, i64 %22
  %24 = getelementptr inbounds nuw i8, ptr %4, i64 128
  tail call void @llvm.memcpy.p0.p0.i64(ptr noundef nonnull align 4 dereferenceable(64) %23, ptr noundef nonnull align 4 dereferenceable(64) %24, i64 64, i1 false), !tbaa.struct !148
  ret void
}